target datalayout = "e-m:e-p270:32:32-p271:32:32-p272:64:64-i64:64-i128:128-f80:128-n8:16:32:64-S128"
target triple = "x86_64-pc-linux-gnu"

%"class.zmq::msg_t" = type { %union.anon }
%union.anon = type { %struct.anon }
%struct.anon = type { ptr, [34 x i8], i8, i8, i32, %"union.zmq::msg_t::group_t" }
%"union.zmq::msg_t::group_t" = type { %struct.anon.1 }
%struct.anon.1 = type { i8, ptr }
%struct.anon.2 = type { ptr, [33 x i8], i8, i8, i8, i32, %"union.zmq::msg_t::group_t" }
%struct.anon.0 = type { i8, [15 x i8] }
%struct.anon.3 = type { ptr, ptr, [26 x i8], i8, i8, i32, %"union.zmq::msg_t::group_t" }
%"struct.zmq::msg_t::content_t" = type { ptr, i64, ptr, ptr, %"class.zmq::atomic_counter_t" }
%"class.zmq::atomic_counter_t" = type { %"struct.std::atomic", [4 x i8] }
%"struct.std::atomic" = type { %"struct.std::__atomic_base" }
%"struct.std::__atomic_base" = type { i32 }

; Function Attrs: mustprogress nounwind uwtable
define linkonce_odr void @_ZNSt13__atomic_baseIjEC2Ej(ptr noundef nonnull align 4 dereferenceable(4) %0, i32 noundef %1) unnamed_addr #0 comdat align 2 {
  %3 = alloca ptr, align 8
  %4 = alloca i32, align 4
  store ptr %0, ptr %3, align 8, !tbaa !35
  store i32 %1, ptr %4, align 4, !tbaa !14
  %5 = load ptr, ptr %3, align 8
  %6 = getelementptr inbounds nuw %"struct.std::__atomic_base", ptr %5, i32 0, i32 0
  %7 = load i32, ptr %4, align 4, !tbaa !14
  store i32 %7, ptr %6, align 4, !tbaa !37
  ret void
}

; Function Attrs: mustprogress nounwind uwtable
define linkonce_odr void @_ZNSt6atomicIjEC2Ej(ptr noundef nonnull align 4 dereferenceable(4) %0, i32 noundef %1) unnamed_addr #0 comdat align 2 {
  %3 = alloca ptr, align 8
  %4 = alloca i32, align 4
  store ptr %0, ptr %3, align 8, !tbaa !33
  store i32 %1, ptr %4, align 4, !tbaa !14
  %5 = load ptr, ptr %3, align 8
  %6 = load i32, ptr %4, align 4, !tbaa !14
  call void @_ZNSt13__atomic_baseIjEC2Ej(ptr noundef nonnull align 4 dereferenceable(4) %5, i32 noundef %6) #14
  ret void
}

; Function Attrs: mustprogress nounwind uwtable
define linkonce_odr void @_ZN3zmq16atomic_counter_tC2Ej(ptr noundef nonnull align 8 dereferenceable(4) %0, i32 noundef %1) unnamed_addr #0 comdat align 2 {
  %3 = alloca ptr, align 8
  %4 = alloca i32, align 4
  store ptr %0, ptr %3, align 8, !tbaa !26
  store i32 %1, ptr %4, align 4, !tbaa !14
  %5 = load ptr, ptr %3, align 8
  %6 = getelementptr inbounds nuw %"class.zmq::atomic_counter_t", ptr %5, i32 0, i32 0
  %7 = load i32, ptr %4, align 4, !tbaa !14
  call void @_ZNSt6atomicIjEC2Ej(ptr noundef nonnull align 4 dereferenceable(4) %6, i32 noundef %7) #14
  ret void
}

; Function Attrs: mustprogress nounwind uwtable
define void @_ZN3zmq5msg_t9set_flagsEh(ptr noundef nonnull align 8 dereferenceable(64) %0, i8 noundef zeroext %1) #0 align 2 {
  %3 = alloca ptr, align 8
  %4 = alloca i8, align 1
  store ptr %0, ptr %3, align 8, !tbaa !3
  store i8 %1, ptr %4, align 1, !tbaa !8
  %5 = load ptr, ptr %3, align 8
  %6 = load i8, ptr %4, align 1, !tbaa !8
  %7 = zext i8 %6 to i32
  %8 = getelementptr inbounds nuw %"class.zmq::msg_t", ptr %5, i32 0, i32 0
  %9 = getelementptr inbounds nuw %struct.anon, ptr %8, i32 0, i32 3
  %10 = load i8, ptr %9, align 1, !tbaa !8
  %11 = zext i8 %10 to i32
  %12 = or i32 %11, %7
  %13 = trunc i32 %12 to i8
  store i8 %13, ptr %9, align 1, !tbaa !8
  ret void
}

; Function Attrs: mustprogress nounwind uwtable
define noundef i32 @_ZN3zmq5msg_t9init_sizeEm(ptr noundef nonnull align 8 dereferenceable(64) %0, i64 noundef %1) #0 align 2 {
  %3 = alloca i32, align 4
  %4 = alloca ptr, align 8
  %5 = alloca i64, align 8
  store ptr %0, ptr %4, align 8, !tbaa !3
  store i64 %1, ptr %5, align 8, !tbaa !10
  %6 = load ptr, ptr %4, align 8
  %7 = load i64, ptr %5, align 8, !tbaa !10
  %8 = icmp ule i64 %7, 33
  br i1 %8, label %9, label %28

9:                                                ; preds = %2
  %10 = getelementptr inbounds nuw %"class.zmq::msg_t", ptr %6, i32 0, i32 0
  %11 = getelementptr inbounds nuw %struct.anon.2, ptr %10, i32 0, i32 0
  store ptr null, ptr %11, align 8, !tbaa !8
  %12 = getelementptr inbounds nuw %"class.zmq::msg_t", ptr %6, i32 0, i32 0
  %13 = getelementptr inbounds nuw %struct.anon.2, ptr %12, i32 0, i32 3
  store i8 101, ptr %13, align 2, !tbaa !8
  %14 = getelementptr inbounds nuw %"class.zmq::msg_t", ptr %6, i32 0, i32 0
  %15 = getelementptr inbounds nuw %struct.anon.2, ptr %14, i32 0, i32 4
  store i8 0, ptr %15, align 1, !tbaa !8
  %16 = load i64, ptr %5, align 8, !tbaa !10
  %17 = trunc i64 %16 to i8
  %18 = getelementptr inbounds nuw %"class.zmq::msg_t", ptr %6, i32 0, i32 0
  %19 = getelementptr inbounds nuw %struct.anon.2, ptr %18, i32 0, i32 2
  store i8 %17, ptr %19, align 1, !tbaa !8
  %20 = getelementptr inbounds nuw %"class.zmq::msg_t", ptr %6, i32 0, i32 0
  %21 = getelementptr inbounds nuw %struct.anon.2, ptr %20, i32 0, i32 6
  %22 = getelementptr inbounds nuw %struct.anon.0, ptr %21, i32 0, i32 1
  %23 = getelementptr inbounds [15 x i8], ptr %22, i64 0, i64 0
  store i8 0, ptr %23, align 1, !tbaa !8
  %24 = getelementptr inbounds nuw %"class.zmq::msg_t", ptr %6, i32 0, i32 0
  %25 = getelementptr inbounds nuw %struct.anon.2, ptr %24, i32 0, i32 6
  store i8 0, ptr %25, align 8, !tbaa !8
  %26 = getelementptr inbounds nuw %"class.zmq::msg_t", ptr %6, i32 0, i32 0
  %27 = getelementptr inbounds nuw %struct.anon.2, ptr %26, i32 0, i32 5
  store i32 0, ptr %27, align 4, !tbaa !8
  br label %92

28:                                               ; preds = %2
  %29 = getelementptr inbounds nuw %"class.zmq::msg_t", ptr %6, i32 0, i32 0
  %30 = getelementptr inbounds nuw %struct.anon.3, ptr %29, i32 0, i32 0
  store ptr null, ptr %30, align 8, !tbaa !8
  %31 = getelementptr inbounds nuw %"class.zmq::msg_t", ptr %6, i32 0, i32 0
  %32 = getelementptr inbounds nuw %struct.anon.3, ptr %31, i32 0, i32 3
  store i8 102, ptr %32, align 2, !tbaa !8
  %33 = getelementptr inbounds nuw %"class.zmq::msg_t", ptr %6, i32 0, i32 0
  %34 = getelementptr inbounds nuw %struct.anon.3, ptr %33, i32 0, i32 4
  store i8 0, ptr %34, align 1, !tbaa !8
  %35 = getelementptr inbounds nuw %"class.zmq::msg_t", ptr %6, i32 0, i32 0
  %36 = getelementptr inbounds nuw %struct.anon.3, ptr %35, i32 0, i32 6
  %37 = getelementptr inbounds nuw %struct.anon.0, ptr %36, i32 0, i32 1
  %38 = getelementptr inbounds [15 x i8], ptr %37, i64 0, i64 0
  store i8 0, ptr %38, align 1, !tbaa !8
  %39 = getelementptr inbounds nuw %"class.zmq::msg_t", ptr %6, i32 0, i32 0
  %40 = getelementptr inbounds nuw %struct.anon.3, ptr %39, i32 0, i32 6
  store i8 0, ptr %40, align 8, !tbaa !8
  %41 = getelementptr inbounds nuw %"class.zmq::msg_t", ptr %6, i32 0, i32 0
  %42 = getelementptr inbounds nuw %struct.anon.3, ptr %41, i32 0, i32 5
  store i32 0, ptr %42, align 4, !tbaa !8
  %43 = getelementptr inbounds nuw %"class.zmq::msg_t", ptr %6, i32 0, i32 0
  %44 = getelementptr inbounds nuw %struct.anon.3, ptr %43, i32 0, i32 1
  store ptr null, ptr %44, align 8, !tbaa !8
  %45 = load i64, ptr %5, align 8, !tbaa !10
  %46 = add i64 40, %45
  %47 = load i64, ptr %5, align 8, !tbaa !10
  %48 = icmp ugt i64 %46, %47
  br i1 %48, label %49, label %55

49:                                               ; preds = %28
  %50 = load i64, ptr %5, align 8, !tbaa !10
  %51 = add i64 40, %50
  %52 = call noalias ptr @malloc(i64 noundef %51) #15
  %53 = getelementptr inbounds nuw %"class.zmq::msg_t", ptr %6, i32 0, i32 0
  %54 = getelementptr inbounds nuw %struct.anon.3, ptr %53, i32 0, i32 1
  store ptr %52, ptr %54, align 8, !tbaa !8
  br label %55

55:                                               ; preds = %49, %28
  %56 = getelementptr inbounds nuw %"class.zmq::msg_t", ptr %6, i32 0, i32 0
  %57 = getelementptr inbounds nuw %struct.anon.3, ptr %56, i32 0, i32 1
  %58 = load ptr, ptr %57, align 8, !tbaa !8
  %59 = icmp ne ptr %58, null
  %60 = xor i1 %59, true
  %61 = zext i1 %60 to i64
  %62 = call i64 @llvm.expect.i64(i64 %61, i64 0)
  %63 = icmp ne i64 %62, 0
  br i1 %63, label %64, label %66

64:                                               ; preds = %55
  %65 = call ptr @__errno_location() #16
  store i32 12, ptr %65, align 4, !tbaa !14
  store i32 -1, ptr %3, align 4
  br label %93

66:                                               ; preds = %55
  %67 = getelementptr inbounds nuw %"class.zmq::msg_t", ptr %6, i32 0, i32 0
  %68 = getelementptr inbounds nuw %struct.anon.3, ptr %67, i32 0, i32 1
  %69 = load ptr, ptr %68, align 8, !tbaa !8
  %70 = getelementptr inbounds %"struct.zmq::msg_t::content_t", ptr %69, i64 1
  %71 = getelementptr inbounds nuw %"class.zmq::msg_t", ptr %6, i32 0, i32 0
  %72 = getelementptr inbounds nuw %struct.anon.3, ptr %71, i32 0, i32 1
  %73 = load ptr, ptr %72, align 8, !tbaa !8
  %74 = getelementptr inbounds nuw %"struct.zmq::msg_t::content_t", ptr %73, i32 0, i32 0
  store ptr %70, ptr %74, align 8, !tbaa !16
  %75 = load i64, ptr %5, align 8, !tbaa !10
  %76 = getelementptr inbounds nuw %"class.zmq::msg_t", ptr %6, i32 0, i32 0
  %77 = getelementptr inbounds nuw %struct.anon.3, ptr %76, i32 0, i32 1
  %78 = load ptr, ptr %77, align 8, !tbaa !8
  %79 = getelementptr inbounds nuw %"struct.zmq::msg_t::content_t", ptr %78, i32 0, i32 1
  store i64 %75, ptr %79, align 8, !tbaa !21
  %80 = getelementptr inbounds nuw %"class.zmq::msg_t", ptr %6, i32 0, i32 0
  %81 = getelementptr inbounds nuw %struct.anon.3, ptr %80, i32 0, i32 1
  %82 = load ptr, ptr %81, align 8, !tbaa !8
  %83 = getelementptr inbounds nuw %"struct.zmq::msg_t::content_t", ptr %82, i32 0, i32 2
  store ptr null, ptr %83, align 8, !tbaa !22
  %84 = getelementptr inbounds nuw %"class.zmq::msg_t", ptr %6, i32 0, i32 0
  %85 = getelementptr inbounds nuw %struct.anon.3, ptr %84, i32 0, i32 1
  %86 = load ptr, ptr %85, align 8, !tbaa !8
  %87 = getelementptr inbounds nuw %"struct.zmq::msg_t::content_t", ptr %86, i32 0, i32 3
  store ptr null, ptr %87, align 8, !tbaa !23
  %88 = getelementptr inbounds nuw %"class.zmq::msg_t", ptr %6, i32 0, i32 0
  %89 = getelementptr inbounds nuw %struct.anon.3, ptr %88, i32 0, i32 1
  %90 = load ptr, ptr %89, align 8, !tbaa !8
  %91 = getelementptr inbounds nuw %"struct.zmq::msg_t::content_t", ptr %90, i32 0, i32 4
  call void @_ZN3zmq16atomic_counter_tC2Ej(ptr noundef nonnull align 8 dereferenceable(4) %91, i32 noundef 0) #14
  br label %92

92:                                               ; preds = %66, %9
  store i32 0, ptr %3, align 4
  br label %93

93:                                               ; preds = %92, %64
  %94 = load i32, ptr %3, align 4
  ret i32 %94
}

; Function Attrs: mustprogress uwtable
define noundef i32 @_ZN3zmq5msg_t14init_subscribeEmPKh(ptr noundef nonnull align 8 dereferenceable(64) %0, i64 noundef %1, ptr noundef %2) #1 align 2 {
  %4 = alloca ptr, align 8
  %5 = alloca i64, align 8
  %6 = alloca ptr, align 8
  %7 = alloca i32, align 4
  store ptr %0, ptr %4, align 8, !tbaa !3
  store i64 %1, ptr %5, align 8, !tbaa !10
  store ptr %2, ptr %6, align 8, !tbaa !28
  %8 = load ptr, ptr %4, align 8
  call void @llvm.lifetime.start.p0(i64 4, ptr %7) #14
  %9 = load i64, ptr %5, align 8, !tbaa !10
  %10 = call noundef i32 @_ZN3zmq5msg_t9init_sizeEm(ptr noundef nonnull align 8 dereferenceable(64) %8, i64 noundef %9)
  store i32 %10, ptr %7, align 4, !tbaa !14
  %11 = load i32, ptr %7, align 4, !tbaa !14
  %12 = icmp eq i32 %11, 0
  br i1 %12, label %13, label %21

13:                                               ; preds = %3
  call void @_ZN3zmq5msg_t9set_flagsEh(ptr noundef nonnull align 8 dereferenceable(64) %8, i8 noundef zeroext 12)
  %14 = load i64, ptr %5, align 8, !tbaa !10
  %15 = icmp ne i64 %14, 0
  br i1 %15, label %16, label %20

16:                                               ; preds = %13
  %17 = call noundef ptr @_ZN3zmq5msg_t4dataEv(ptr noundef nonnull align 8 dereferenceable(64) %8)
  %18 = load ptr, ptr %6, align 8, !tbaa !28
  %19 = load i64, ptr %5, align 8, !tbaa !10
  call void @llvm.memcpy.p0.p0.i64(ptr align 1 %17, ptr align 1 %18, i64 %19, i1 false)
  br label %20

20:                                               ; preds = %16, %13
  br label %21

21:                                               ; preds = %20, %3
  %22 = load i32, ptr %7, align 4, !tbaa !14
  call void @llvm.lifetime.end.p0(i64 4, ptr %7) #14
  ret i32 %22
}